(lp0
S'poi'
p1
aS'deferral_payments'
p2
aS'restricted_stock_deferred'
p3
aS'deferred_income'
p4
aS'director_fees'
p5
aS'exercised_stock_options'
p6
aS'shared_receipt_with_poi'
p7
aS'deferred_stock_ratio'
p8
a.