(lp0
S'poi'
p1
aS'salary'
p2
aS'bonus'
p3
aS'deferred_income'
p4
aS'expenses'
p5
aS'exercised_stock_options'
p6
aS'other'
p7
aS'long_term_incentive'
p8
aS'restricted_stock'
p9
aS'from_poi_to_this_person'
p10
aS'from_this_person_to_poi'
p11
aS'shared_receipt_with_poi'
p12
aS'deferral_ratio'
p13
aS'sent_to_poi_ratio'
p14
a.